; Function Attrs: mustprogress nofree nounwind willreturn memory(read, inaccessiblemem: none) uwtable
define internal noundef ptr @_ZNSt19_Sp_counted_deleterIPN8facebook5velox9functions12_GLOBAL__N_114ConcatFunctionESt14default_deleteIS4_ESaIvELN9__gnu_cxx12_Lock_policyE2EE14_M_get_deleterERKSt9type_info(ptr noundef nonnull readnone align 8 dereferenceable(24) %this, ptr nocapture noundef nonnull readonly align 8 dereferenceable(16) %__ti) unnamed_addr #15 align 2 personality ptr @__gxx_personality_v0 {
entry:
  %__name.i = getelementptr inbounds i8, ptr %__ti, i64 8
  %0 = load ptr, ptr %__name.i, align 8
  %cmp.i = icmp eq ptr %0, @_ZTSSt14default_deleteIN8facebook5velox9functions12_GLOBAL__N_114ConcatFunctionEE
  br i1 %cmp.i, label %cond.true, label %if.end.i

if.end.i:                                         ; preds = %entry
  %1 = load i8, ptr %0, align 1
  %cmp4.not.i = icmp eq i8 %1, 42
  br i1 %cmp4.not.i, label %cond.end, label %_ZNKSt9type_infoeqERKS_.exit

_ZNKSt9type_infoeqERKS_.exit:                     ; preds = %if.end.i
  %call6.i = tail call i32 @strcmp(ptr noundef nonnull dereferenceable(1) %0, ptr noundef nonnull dereferenceable(78) @_ZTSSt14default_deleteIN8facebook5velox9functions12_GLOBAL__N_114ConcatFunctionEE) #22
  %cmp7.i = icmp eq i32 %call6.i, 0
  br i1 %cmp7.i, label %cond.true, label %cond.end

cond.true:                                        ; preds = %entry, %_ZNKSt9type_infoeqERKS_.exit
  %_M_impl = getelementptr inbounds i8, ptr %this, i64 16
  br label %cond.end

cond.end:                                         ; preds = %if.end.i, %_ZNKSt9type_infoeqERKS_.exit, %cond.true
  %cond = phi ptr [ %_M_impl, %cond.true ], [ null, %_ZNKSt9type_infoeqERKS_.exit ], [ null, %if.end.i ]
  ret ptr %cond
}